target datalayout = "e-m:e-p270:32:32-p271:32:32-p272:64:64-i64:64-i128:128-f80:128-n8:16:32:64-S128"
target triple = "x86_64-pc-linux-gnu"

%struct.slurm_conf_t = type { i64, ptr, i16, ptr, ptr, ptr, ptr, ptr, i16, ptr, ptr, ptr, ptr, ptr, ptr, ptr, i16, ptr, ptr, ptr, ptr, i16, ptr, ptr, ptr, i64, ptr, ptr, ptr, ptr, i16, ptr, ptr, i16, i32, ptr, i32, ptr, i32, i32, ptr, ptr, i64, i64, ptr, i16, i16, ptr, i32, i32, ptr, i32, ptr, i32, i16, i16, i16, ptr, i16, i16, ptr, ptr, i32, i16, i16, ptr, i32, i16, ptr, ptr, ptr, ptr, i16, ptr, ptr, ptr, ptr, i32, ptr, ptr, ptr, ptr, i16, i16, ptr, i32, i32, i32, i16, i16, ptr, ptr, i16, ptr, ptr, i32, i32, i32, i32, i32, i64, i32, i32, i16, ptr, ptr, i32, ptr, ptr, ptr, i16, i32, ptr, ptr, i16, ptr, ptr, i32, i16, ptr, ptr, ptr, ptr, i32, i32, i16, i16, i32, ptr, i16, ptr, i32, i32, i32, i32, i32, i32, ptr, i16, ptr, ptr, i32, i16, ptr, i32, i16, i16, ptr, ptr, ptr, i16, ptr, ptr, ptr, ptr, i16, i16, ptr, i16, ptr, i16, ptr, i16, ptr, i16, ptr, ptr, ptr, ptr, i16, ptr, ptr, ptr, i32, ptr, i32, ptr, ptr, i16, ptr, ptr, i32, i16, ptr, ptr, i16, i16, ptr, i16, ptr, ptr, ptr, i32, ptr, i16, i16, ptr, ptr, ptr, ptr, ptr, ptr, ptr, ptr, i16, i32, i16, ptr, ptr, ptr, ptr, i32, ptr, ptr, ptr, i16, ptr, ptr, ptr, i16, ptr, i16, ptr, i16, i16, ptr }
%union.pthread_attr_t = type { i64, [48 x i8] }

@plugin_name = dso_local constant [28 x i8] c"AcctGatherEnergy gpu plugin\00", align 16
@plugin_type = dso_local constant [23 x i8] c"acct_gather_energy/gpu\00", align 16
@thread_gpu_id_run = dso_local global i64 0, align 8
@.str.2 = private unnamed_addr constant [25 x i8] c"acct_gather_energy_gpu.c\00", align 1
@gpus = internal global ptr null, align 8
@gpus_len = internal global i16 0, align 2
@slurm_conf = external global %struct.slurm_conf_t, align 8
@acct_gather_energy_p_conf_set.flag_init = internal global i8 0, align 1
@context_id = internal global i32 -1, align 4
@__func__.acct_gather_energy_p_conf_set = private unnamed_addr constant [30 x i8] c"acct_gather_energy_p_conf_set\00", align 1
@.str.10 = private unnamed_addr constant [22 x i8] c"pthread_attr_init: %m\00", align 1
@.str.11 = private unnamed_addr constant [26 x i8] c"pthread_attr_setscope: %m\00", align 1
@.str.12 = private unnamed_addr constant [30 x i8] c"pthread_attr_setstacksize: %m\00", align 1
@.str.13 = private unnamed_addr constant [28 x i8] c"%s: pthread_create error %m\00", align 1
@.str.14 = private unnamed_addr constant [55 x i8] c"pthread_attr_destroy failed, possible memory leak!: %m\00", align 1
@.str.15 = private unnamed_addr constant [35 x i8] c"%s: %s: ENERGY: %s thread launched\00", align 1
@.str.16 = private unnamed_addr constant [18 x i8] c"%s: %s: %s loaded\00", align 1

; Function Attrs: nounwind uwtable
define dso_local void @acct_gather_energy_p_conf_set(i32 noundef %0, ptr noundef %1) #0 {
  %3 = alloca i32, align 4
  %4 = alloca ptr, align 8
  %5 = alloca %union.pthread_attr_t, align 8
  %6 = alloca i32, align 4
  %7 = alloca i32, align 4
  %8 = alloca i32, align 4
  store i32 %0, ptr %3, align 4
  store ptr %1, ptr %4, align 8
  %9 = load i32, ptr %3, align 4
  store i32 %9, ptr @context_id, align 4
  %10 = call zeroext i1 @slurm_running_in_slurmd_stepd()
  br i1 %10, label %12, label %11

11:                                               ; preds = %2
  br label %100

12:                                               ; preds = %2
  %13 = load i8, ptr @acct_gather_energy_p_conf_set.flag_init, align 1, !range !13, !noundef !14
  %14 = trunc i8 %13 to i1
  br i1 %14, label %91, label %15

15:                                               ; preds = %12
  store i8 1, ptr @acct_gather_energy_p_conf_set.flag_init, align 1
  %16 = call zeroext i1 @slurm_running_in_slurmd()
  br i1 %16, label %17, label %88

17:                                               ; preds = %15
  %18 = call i32 @gres_get_gres_cnt()
  %19 = icmp ne i32 %18, 0
  br i1 %19, label %20, label %21

20:                                               ; preds = %17
  call void @gpu_g_get_device_count(ptr noundef @gpus_len)
  br label %21

21:                                               ; preds = %20, %17
  %22 = load i16, ptr @gpus_len, align 2
  %23 = icmp ne i16 %22, 0
  br i1 %23, label %24, label %87

24:                                               ; preds = %21
  %25 = load i16, ptr @gpus_len, align 2
  %26 = zext i16 %25 to i64
  %27 = call ptr @slurm_xcalloc(i64 noundef 80, i64 noundef %26, i1 noundef zeroext true, i1 noundef zeroext false, ptr noundef @.str.2, i32 noundef 670, ptr noundef @__func__.acct_gather_energy_p_conf_set)
  store ptr %27, ptr @gpus, align 8
  br label %28

28:                                               ; preds = %24
  call void @llvm.lifetime.start.p0(i64 56, ptr %5) #9
  call void @llvm.lifetime.start.p0(i64 4, ptr %6) #9
  br label %29

29:                                               ; preds = %28
  call void @llvm.lifetime.start.p0(i64 4, ptr %7) #9
  %30 = call i32 @pthread_attr_init(ptr noundef %5) #9
  store i32 %30, ptr %7, align 4
  %31 = load i32, ptr %7, align 4
  %32 = icmp ne i32 %31, 0
  br i1 %32, label %33, label %36

33:                                               ; preds = %29
  %34 = load i32, ptr %7, align 4
  %35 = call ptr @__errno_location() #10
  store i32 %34, ptr %35, align 4
  call void (ptr, ...) @slurm_fatal(ptr noundef @.str.10) #11
  unreachable

36:                                               ; preds = %29
  %37 = call i32 @pthread_attr_setscope(ptr noundef %5, i32 noundef 0) #9
  store i32 %37, ptr %7, align 4
  %38 = load i32, ptr %7, align 4
  %39 = icmp ne i32 %38, 0
  br i1 %39, label %40, label %44

40:                                               ; preds = %36
  %41 = load i32, ptr %7, align 4
  %42 = call ptr @__errno_location() #10
  store i32 %41, ptr %42, align 4
  %43 = call i32 (ptr, ...) @slurm_error(ptr noundef @.str.11)
  br label %44

44:                                               ; preds = %40, %36
  %45 = call i32 @pthread_attr_setstacksize(ptr noundef %5, i64 noundef 1048576) #9
  store i32 %45, ptr %7, align 4
  %46 = load i32, ptr %7, align 4
  %47 = icmp ne i32 %46, 0
  br i1 %47, label %48, label %52

48:                                               ; preds = %44
  %49 = load i32, ptr %7, align 4
  %50 = call ptr @__errno_location() #10
  store i32 %49, ptr %50, align 4
  %51 = call i32 (ptr, ...) @slurm_error(ptr noundef @.str.12)
  br label %52

52:                                               ; preds = %48, %44
  call void @llvm.lifetime.end.p0(i64 4, ptr %7) #9
  br label %53

53:                                               ; preds = %52
  br label %54

54:                                               ; preds = %53
  %55 = call i32 @pthread_create(ptr noundef @thread_gpu_id_run, ptr noundef %5, ptr noundef @_thread_gpu_run, ptr noundef null) #9
  store i32 %55, ptr %6, align 4
  %56 = load i32, ptr %6, align 4
  %57 = icmp ne i32 %56, 0
  br i1 %57, label %58, label %61

58:                                               ; preds = %54
  %59 = load i32, ptr %6, align 4
  %60 = call ptr @__errno_location() #10
  store i32 %59, ptr %60, align 4
  call void (ptr, ...) @slurm_fatal(ptr noundef @.str.13, ptr noundef @__func__.acct_gather_energy_p_conf_set) #11
  unreachable

61:                                               ; preds = %54
  br label %62

62:                                               ; preds = %61
  call void @llvm.lifetime.start.p0(i64 4, ptr %8) #9
  %63 = call i32 @pthread_attr_destroy(ptr noundef %5) #9
  store i32 %63, ptr %8, align 4
  %64 = load i32, ptr %8, align 4
  %65 = icmp ne i32 %64, 0
  br i1 %65, label %66, label %70

66:                                               ; preds = %62
  %67 = load i32, ptr %8, align 4
  %68 = call ptr @__errno_location() #10
  store i32 %67, ptr %68, align 4
  %69 = call i32 (ptr, ...) @slurm_error(ptr noundef @.str.14)
  br label %70

70:                                               ; preds = %66, %62
  call void @llvm.lifetime.end.p0(i64 4, ptr %8) #9
  br label %71

71:                                               ; preds = %70
  br label %72

72:                                               ; preds = %71
  call void @llvm.lifetime.end.p0(i64 4, ptr %6) #9
  call void @llvm.lifetime.end.p0(i64 56, ptr %5) #9
  br label %73

73:                                               ; preds = %72
  br label %74

74:                                               ; preds = %73
  %75 = load i64, ptr getelementptr inbounds nuw (%struct.slurm_conf_t, ptr @slurm_conf, i32 0, i32 42), align 8
  %76 = and i64 %75, 262144
  %77 = icmp ne i64 %76, 0
  br i1 %77, label %78, label %85

78:                                               ; preds = %74
  br label %79

79:                                               ; preds = %78
  %80 = call i32 @slurm_get_log_level()
  %81 = icmp sge i32 %80, 4
  br i1 %81, label %82, label %83

82:                                               ; preds = %79
  call void (i32, ptr, ...) @slurm_log_var(i32 noundef 4, ptr noundef @.str.15, ptr noundef @plugin_type, ptr noundef @__func__.acct_gather_energy_p_conf_set, ptr noundef @plugin_name)
  br label %83

83:                                               ; preds = %82, %79
  br label %84

84:                                               ; preds = %83
  br label %85

85:                                               ; preds = %84, %74
  br label %86

86:                                               ; preds = %85
  br label %87

87:                                               ; preds = %86, %21
  br label %90

88:                                               ; preds = %15
  %89 = call i32 @_get_joules_task(i16 noundef zeroext 0)
  br label %90

90:                                               ; preds = %88, %87
  br label %91

91:                                               ; preds = %90, %12
  br label %92

92:                                               ; preds = %91
  br label %93

93:                                               ; preds = %92
  %94 = call i32 @slurm_get_log_level()
  %95 = icmp sge i32 %94, 5
  br i1 %95, label %96, label %97

96:                                               ; preds = %93
  call void (i32, ptr, ...) @slurm_log_var(i32 noundef 5, ptr noundef @.str.16, ptr noundef @plugin_type, ptr noundef @__func__.acct_gather_energy_p_conf_set, ptr noundef @plugin_name)
  br label %97

97:                                               ; preds = %96, %93
  br label %98

98:                                               ; preds = %97
  br label %99

99:                                               ; preds = %98
  br label %100

100:                                              ; preds = %99, %11
  ret void
}