; Function Attrs: nounwind uwtable
define dso_local void @acct_gather_energy_p_conf_set(i32 noundef %0, ptr noundef readnone captures(none) %1) local_unnamed_addr #1 {
  %3 = alloca %union.pthread_attr_t, align 8
  store i32 %0, ptr @context_id, align 4
  %4 = tail call zeroext i1 @slurm_running_in_slurmd_stepd() #11
  br i1 %4, label %5, label %50

5:                                                ; preds = %2
  %.b16 = load i1, ptr @acct_gather_energy_p_conf_set.flag_init, align 1
  br i1 %.b16, label %46, label %6

6:                                                ; preds = %5
  store i1 true, ptr @acct_gather_energy_p_conf_set.flag_init, align 1
  %7 = tail call zeroext i1 @slurm_running_in_slurmd() #11
  br i1 %7, label %8, label %45

8:                                                ; preds = %6
  %9 = tail call i32 @gres_get_gres_cnt() #11
  %.not = icmp eq i32 %9, 0
  br i1 %.not, label %11, label %10

10:                                               ; preds = %8
  tail call void @gpu_g_get_device_count(ptr noundef nonnull @gpus_len) #11
  br label %11

11:                                               ; preds = %10, %8
  %12 = load i16, ptr @gpus_len, align 2
  %.not17 = icmp eq i16 %12, 0
  br i1 %.not17, label %46, label %13

13:                                               ; preds = %11
  %14 = zext i16 %12 to i64
  %15 = tail call ptr @slurm_xcalloc(i64 noundef 80, i64 noundef %14, i1 noundef zeroext true, i1 noundef zeroext false, ptr noundef nonnull @.str.2, i32 noundef 670, ptr noundef nonnull @__func__.acct_gather_energy_p_conf_set) #11
  store ptr %15, ptr @gpus, align 8
  call void @llvm.lifetime.start.p0(i64 56, ptr nonnull %3) #11
  %16 = call i32 @pthread_attr_init(ptr noundef nonnull %3) #11
  %.not18 = icmp eq i32 %16, 0
  br i1 %.not18, label %19, label %17

17:                                               ; preds = %13
  %18 = tail call ptr @__errno_location() #12
  store i32 %16, ptr %18, align 4
  call void (ptr, ...) @slurm_fatal(ptr noundef nonnull @.str.10) #13
  unreachable

19:                                               ; preds = %13
  %20 = call i32 @pthread_attr_setscope(ptr noundef nonnull %3, i32 noundef 0) #11
  %.not19 = icmp eq i32 %20, 0
  br i1 %.not19, label %24, label %21

21:                                               ; preds = %19
  %22 = tail call ptr @__errno_location() #12
  store i32 %20, ptr %22, align 4
  %23 = call i32 (ptr, ...) @slurm_error(ptr noundef nonnull @.str.11) #11
  br label %24

24:                                               ; preds = %21, %19
  %25 = call i32 @pthread_attr_setstacksize(ptr noundef nonnull %3, i64 noundef 1048576) #11
  %.not20 = icmp eq i32 %25, 0
  br i1 %.not20, label %29, label %26

26:                                               ; preds = %24
  %27 = tail call ptr @__errno_location() #12
  store i32 %25, ptr %27, align 4
  %28 = call i32 (ptr, ...) @slurm_error(ptr noundef nonnull @.str.12) #11
  br label %29

29:                                               ; preds = %26, %24
  %30 = call i32 @pthread_create(ptr noundef nonnull @thread_gpu_id_run, ptr noundef nonnull %3, ptr noundef nonnull @_thread_gpu_run, ptr noundef null) #11
  %.not21 = icmp eq i32 %30, 0
  br i1 %.not21, label %33, label %31

31:                                               ; preds = %29
  %32 = tail call ptr @__errno_location() #12
  store i32 %30, ptr %32, align 4
  call void (ptr, ...) @slurm_fatal(ptr noundef nonnull @.str.13, ptr noundef nonnull @__func__.acct_gather_energy_p_conf_set) #13
  unreachable

33:                                               ; preds = %29
  %34 = call i32 @pthread_attr_destroy(ptr noundef nonnull %3) #11
  %.not22 = icmp eq i32 %34, 0
  br i1 %.not22, label %38, label %35

35:                                               ; preds = %33
  %36 = tail call ptr @__errno_location() #12
  store i32 %34, ptr %36, align 4
  %37 = call i32 (ptr, ...) @slurm_error(ptr noundef nonnull @.str.14) #11
  br label %38

38:                                               ; preds = %35, %33
  call void @llvm.lifetime.end.p0(i64 56, ptr nonnull %3) #11
  %39 = load i64, ptr getelementptr inbounds nuw (i8, ptr @slurm_conf, i64 320), align 8
  %40 = and i64 %39, 262144
  %.not23 = icmp eq i64 %40, 0
  br i1 %.not23, label %46, label %41

41:                                               ; preds = %38
  %42 = call i32 @slurm_get_log_level() #11
  %43 = icmp sgt i32 %42, 3
  br i1 %43, label %44, label %46

44:                                               ; preds = %41
  call void (i32, ptr, ...) @slurm_log_var(i32 noundef 4, ptr noundef nonnull @.str.15, ptr noundef nonnull @plugin_type, ptr noundef nonnull @__func__.acct_gather_energy_p_conf_set, ptr noundef nonnull @plugin_name) #11
  br label %46

45:                                               ; preds = %6
  tail call fastcc void @_get_joules_task(i16 noundef zeroext 0)
  br label %46

46:                                               ; preds = %45, %44, %41, %38, %11, %5
  %47 = call i32 @slurm_get_log_level() #11
  %48 = icmp sgt i32 %47, 4
  br i1 %48, label %49, label %50

49:                                               ; preds = %46
  call void (i32, ptr, ...) @slurm_log_var(i32 noundef 5, ptr noundef nonnull @.str.16, ptr noundef nonnull @plugin_type, ptr noundef nonnull @__func__.acct_gather_energy_p_conf_set, ptr noundef nonnull @plugin_name) #11
  br label %50

50:                                               ; preds = %46, %49, %2
  ret void
}